; Function Attrs: null_pointer_is_valid sspstrong uwtable
define internal void @sm_fragment_free_persistent_key(ptr noundef %0) #0 {
  %.not = icmp eq ptr %0, null
  br i1 %.not, label %24, label %2

2:                                                ; preds = %1
  %3 = load ptr, ptr %0, align 8
  tail call void @wmem_free(ptr noundef null, ptr noundef %3)
  %4 = getelementptr inbounds nuw i8, ptr %0, i64 16
  %5 = load i32, ptr %4, align 8
  %.not.i.i = icmp eq i32 %5, 0
  br i1 %.not.i.i, label %free_address.exit, label %6

6:                                                ; preds = %2
  %7 = getelementptr inbounds nuw i8, ptr %0, i64 20
  %8 = load i32, ptr %7, align 4
  %9 = icmp sgt i32 %8, 0
  br i1 %9, label %10, label %free_address.exit

10:                                               ; preds = %6
  %11 = getelementptr inbounds nuw i8, ptr %0, i64 32
  %12 = load ptr, ptr %11, align 8
  %.not6.i.i = icmp eq ptr %12, null
  br i1 %.not6.i.i, label %free_address.exit, label %13

13:                                               ; preds = %10
  tail call void @wmem_free(ptr noundef null, ptr noundef nonnull %12)
  br label %free_address.exit

free_address.exit:                                ; preds = %2, %6, %10, %13
  tail call void @llvm.memset.p0.i64(ptr noundef nonnull align 8 dereferenceable(24) %4, i8 0, i64 24, i1 false)
  %14 = getelementptr inbounds nuw i8, ptr %0, i64 40
  %15 = load i32, ptr %14, align 8
  %.not.i.i6 = icmp eq i32 %15, 0
  br i1 %.not.i.i6, label %free_address.exit8, label %16

16:                                               ; preds = %free_address.exit
  %17 = getelementptr inbounds nuw i8, ptr %0, i64 44
  %18 = load i32, ptr %17, align 4
  %19 = icmp sgt i32 %18, 0
  br i1 %19, label %20, label %free_address.exit8

20:                                               ; preds = %16
  %21 = getelementptr inbounds nuw i8, ptr %0, i64 56
  %22 = load ptr, ptr %21, align 8
  %.not6.i.i7 = icmp eq ptr %22, null
  br i1 %.not6.i.i7, label %free_address.exit8, label %23

23:                                               ; preds = %20
  tail call void @wmem_free(ptr noundef null, ptr noundef nonnull %22)
  br label %free_address.exit8

free_address.exit8:                               ; preds = %free_address.exit, %16, %20, %23
  tail call void @llvm.memset.p0.i64(ptr noundef nonnull align 8 dereferenceable(24) %14, i8 0, i64 24, i1 false)
  tail call void @g_slice_free1(i64 noundef 72, ptr noundef nonnull %0)
  br label %24

24:                                               ; preds = %free_address.exit8, %1
  ret void
}